; Function Attrs: mustprogress uwtable
define noundef ptr @_ZNK5faiss13InvertedLists15get_single_codeEmm(ptr noundef nonnull align 8 dereferenceable(25) %0, i64 noundef %1, i64 noundef %2) unnamed_addr #2 align 2 {
  %4 = load ptr, ptr %0, align 8, !tbaa !4
  %5 = getelementptr inbounds nuw i8, ptr %4, i64 24
  %6 = load ptr, ptr %5, align 8
  %7 = tail call noundef ptr %6(ptr noundef nonnull align 8 dereferenceable(25) %0, i64 noundef %1)
  %8 = getelementptr inbounds nuw i8, ptr %0, i64 16
  %9 = load i64, ptr %8, align 8, !tbaa !10
  %10 = mul i64 %9, %2
  %11 = getelementptr inbounds nuw i8, ptr %7, i64 %10
  ret ptr %11
}